target datalayout = "e-m:e-p270:32:32-p271:32:32-p272:64:64-i64:64-i128:128-f80:128-n8:16:32:64-S128"
target triple = "x86_64-pc-linux-gnu"

%struct._zend_array = type { %struct._zend_refcounted_h, %union.anon.0, i32, %union.anon.1, i32, i32, i32, i32, i64, ptr }
%struct._zend_refcounted_h = type { i32, %union.anon }
%union.anon = type { i32 }
%union.anon.0 = type { i32 }
%union.anon.1 = type { ptr }
%struct._zval_struct = type { %union._zend_value, %union.anon.3, %union.anon.6 }
%union._zend_value = type { i64 }
%union.anon.3 = type { i32 }
%union.anon.6 = type { i32 }
%struct._zend_execute_data = type { ptr, ptr, ptr, ptr, %struct._zval_struct, ptr, ptr, ptr, ptr }
%struct._Bucket = type { %struct._zval_struct, i64, ptr }

@php_password_algos = internal global %struct._zend_array zeroinitializer, align 8

; Function Attrs: nounwind uwtable
define hidden void @zif_password_algos(ptr noundef %0, ptr noundef %1) #0 {
  %3 = alloca ptr, align 8
  %4 = alloca i32, align 4
  %5 = alloca ptr, align 8
  %6 = alloca ptr, align 8
  %7 = alloca ptr, align 8
  %8 = alloca ptr, align 8
  %9 = alloca ptr, align 8
  %10 = alloca ptr, align 8
  %11 = alloca ptr, align 8
  %12 = alloca ptr, align 8
  %13 = alloca ptr, align 8
  %14 = alloca ptr, align 8
  %15 = alloca ptr, align 8
  store ptr %0, ptr %7, align 8
  store ptr %1, ptr %8, align 8
  br label %16

16:                                               ; preds = %2
  %17 = load ptr, ptr %7, align 8
  %18 = getelementptr inbounds %struct._zend_execute_data, ptr %17, i32 0, i32 4
  %19 = getelementptr inbounds %struct._zval_struct, ptr %18, i32 0, i32 2
  %20 = load i32, ptr %19, align 4
  %21 = icmp ne i32 %20, 0
  %22 = xor i1 %21, true
  %23 = xor i1 %22, true
  %24 = zext i1 %23 to i32
  %25 = sext i32 %24 to i64
  %26 = icmp ne i64 %25, 0
  br i1 %26, label %27, label %28

27:                                               ; preds = %16
  call void @zend_wrong_parameters_none_error()
  br label %102

28:                                               ; preds = %16
  br label %29

29:                                               ; preds = %28
  br label %30

30:                                               ; preds = %29
  %31 = call ptr @_zend_new_array_0()
  store ptr %31, ptr %10, align 8
  %32 = load ptr, ptr %8, align 8
  store ptr %32, ptr %11, align 8
  %33 = load ptr, ptr %10, align 8
  %34 = load ptr, ptr %11, align 8
  %35 = getelementptr inbounds %struct._zval_struct, ptr %34, i32 0, i32 0
  store ptr %33, ptr %35, align 8
  %36 = load ptr, ptr %11, align 8
  %37 = getelementptr inbounds %struct._zval_struct, ptr %36, i32 0, i32 1
  store i32 775, ptr %37, align 8
  br label %38

38:                                               ; preds = %30
  br label %39

39:                                               ; preds = %38
  store ptr @php_password_algos, ptr %12, align 8
  %40 = load ptr, ptr %12, align 8
  %41 = getelementptr inbounds %struct._zend_array, ptr %40, i32 0, i32 3
  %42 = load ptr, ptr %41, align 8
  %43 = getelementptr inbounds %struct._Bucket, ptr %42, i64 0
  store ptr %43, ptr %13, align 8
  %44 = load ptr, ptr %12, align 8
  %45 = getelementptr inbounds %struct._zend_array, ptr %44, i32 0, i32 3
  %46 = load ptr, ptr %45, align 8
  %47 = load ptr, ptr %12, align 8
  %48 = getelementptr inbounds %struct._zend_array, ptr %47, i32 0, i32 4
  %49 = load i32, ptr %48, align 8
  %50 = zext i32 %49 to i64
  %51 = getelementptr inbounds %struct._Bucket, ptr %46, i64 %50
  store ptr %51, ptr %14, align 8
  %52 = load ptr, ptr %12, align 8
  %53 = getelementptr inbounds %struct._zend_array, ptr %52, i32 0, i32 1
  %54 = load i32, ptr %53, align 8
  %55 = and i32 %54, 4
  %56 = icmp ne i32 %55, 0
  %57 = xor i1 %56, true
  call void @llvm.assume(i1 %57)
  br label %58

58:                                               ; preds = %98, %39
  %59 = load ptr, ptr %13, align 8
  %60 = load ptr, ptr %14, align 8
  %61 = icmp ne ptr %59, %60
  br i1 %61, label %62, label %101

62:                                               ; preds = %58
  %63 = load ptr, ptr %13, align 8
  %64 = getelementptr inbounds %struct._Bucket, ptr %63, i32 0, i32 0
  store ptr %64, ptr %15, align 8
  %65 = load ptr, ptr %15, align 8
  store ptr %65, ptr %6, align 8
  %66 = load ptr, ptr %6, align 8
  %67 = getelementptr inbounds %struct._zval_struct, ptr %66, i32 0, i32 1
  %68 = load i8, ptr %67, align 8
  %69 = zext i8 %68 to i32
  %70 = icmp eq i32 %69, 0
  %71 = xor i1 %70, true
  %72 = xor i1 %71, true
  %73 = zext i1 %72 to i32
  %74 = sext i32 %73 to i64
  %75 = icmp ne i64 %74, 0
  br i1 %75, label %76, label %77

76:                                               ; preds = %62
  br label %98

77:                                               ; preds = %62
  %78 = load ptr, ptr %13, align 8
  %79 = getelementptr inbounds %struct._Bucket, ptr %78, i32 0, i32 2
  %80 = load ptr, ptr %79, align 8
  store ptr %80, ptr %9, align 8
  %81 = load ptr, ptr %8, align 8
  %82 = load ptr, ptr %9, align 8
  store ptr %82, ptr %5, align 8
  %83 = load ptr, ptr %5, align 8
  %84 = getelementptr inbounds %struct._zend_refcounted_h, ptr %83, i32 0, i32 1
  %85 = load i32, ptr %84, align 4
  store i32 %85, ptr %4, align 4
  %86 = load i32, ptr %4, align 4
  %87 = and i32 %86, 1008
  %88 = and i32 %87, 64
  %89 = icmp ne i32 %88, 0
  br i1 %89, label %95, label %90

90:                                               ; preds = %77
  %91 = load ptr, ptr %5, align 8
  store ptr %91, ptr %3, align 8
  %92 = load ptr, ptr %3, align 8
  %93 = load i32, ptr %92, align 4
  %94 = add i32 %93, 1
  store i32 %94, ptr %92, align 4
  br label %95

95:                                               ; preds = %90, %77
  %96 = load ptr, ptr %5, align 8
  %97 = call i32 @add_next_index_str(ptr noundef %81, ptr noundef %96)
  br label %98

98:                                               ; preds = %95, %76
  %99 = load ptr, ptr %13, align 8
  %100 = getelementptr inbounds %struct._Bucket, ptr %99, i32 1
  store ptr %100, ptr %13, align 8
  br label %58

101:                                              ; preds = %58
  br label %102

102:                                              ; preds = %101, %27
  ret void
}