; Function Attrs: nounwind uwtable
define hidden void @zif_password_algos(ptr nocapture noundef readonly %0, ptr noundef %1) local_unnamed_addr #0 {
  %3 = getelementptr inbounds i8, ptr %0, i64 44
  %4 = load i32, ptr %3, align 4
  %.not = icmp eq i32 %4, 0
  br i1 %.not, label %6, label %5

5:                                                ; preds = %2
  tail call void @zend_wrong_parameters_none_error() #12
  br label %.loopexit

6:                                                ; preds = %2
  %7 = tail call ptr @_zend_new_array_0() #12
  store ptr %7, ptr %1, align 8
  %8 = getelementptr inbounds i8, ptr %1, i64 8
  store i32 775, ptr %8, align 8
  %9 = load ptr, ptr getelementptr inbounds (%struct._zend_array, ptr @php_password_algos, i64 0, i32 3), align 8
  %10 = load i32, ptr getelementptr inbounds (%struct._zend_array, ptr @php_password_algos, i64 0, i32 4), align 8
  %11 = zext i32 %10 to i64
  %12 = getelementptr inbounds %struct._Bucket, ptr %9, i64 %11
  %13 = load i32, ptr getelementptr inbounds (%struct._zend_array, ptr @php_password_algos, i64 0, i32 1), align 8
  %14 = and i32 %13, 4
  %.not22 = icmp eq i32 %14, 0
  tail call void @llvm.assume(i1 %.not22)
  %.not2325 = icmp eq i32 %10, 0
  br i1 %.not2325, label %.loopexit, label %.lr.ph

.lr.ph:                                           ; preds = %6, %29
  %.026 = phi ptr [ %30, %29 ], [ %9, %6 ]
  %15 = getelementptr inbounds i8, ptr %.026, i64 8
  %16 = load i8, ptr %15, align 8
  %17 = icmp eq i8 %16, 0
  br i1 %17, label %29, label %18

18:                                               ; preds = %.lr.ph
  %19 = getelementptr inbounds i8, ptr %.026, i64 24
  %20 = load ptr, ptr %19, align 8
  %21 = getelementptr inbounds i8, ptr %20, i64 4
  %22 = load i32, ptr %21, align 4
  %23 = and i32 %22, 64
  %.not24 = icmp eq i32 %23, 0
  br i1 %.not24, label %24, label %27

24:                                               ; preds = %18
  %25 = load i32, ptr %20, align 4
  %26 = add i32 %25, 1
  store i32 %26, ptr %20, align 4
  br label %27

27:                                               ; preds = %24, %18
  %28 = tail call i32 @add_next_index_str(ptr noundef nonnull %1, ptr noundef nonnull %20) #12
  br label %29

29:                                               ; preds = %.lr.ph, %27
  %30 = getelementptr inbounds i8, ptr %.026, i64 32
  %.not23 = icmp eq ptr %30, %12
  br i1 %.not23, label %.loopexit, label %.lr.ph

.loopexit:                                        ; preds = %29, %6, %5
  ret void
}